target datalayout = "e-m:e-p270:32:32-p271:32:32-p272:64:64-i64:64-i128:128-f80:128-n8:16:32:64-S128"
target triple = "x86_64-pc-linux-gnu"

%"struct.std::array" = type { [2 x ptr] }
%"struct.std::array.2" = type { [3 x ptr] }

@.str.47 = private unnamed_addr constant [11 x i8] c"@with box\0A\00", align 1
@.str.48 = private unnamed_addr constant [13 x i8] c"@    box on\0A\00", align 1
@.str.49 = private unnamed_addr constant [21 x i8] c"@    box loctype %s\0A\00", align 1
@_ZL10LocTypeStr = internal constant %"struct.std::array" { [2 x ptr] [ptr @.str.58, ptr @.str.59] }, align 8
@.str.50 = private unnamed_addr constant [25 x i8] c"@    box %g, %g, %g, %g\0A\00", align 1
@.str.51 = private unnamed_addr constant [23 x i8] c"@    box linestyle %d\0A\00", align 1
@.str.52 = private unnamed_addr constant [23 x i8] c"@    box linewidth %d\0A\00", align 1
@.str.53 = private unnamed_addr constant [19 x i8] c"@    box color %d\0A\00", align 1
@.str.54 = private unnamed_addr constant [18 x i8] c"@    box fill %s\0A\00", align 1
@_ZL10BoxFillStr = internal constant %"struct.std::array.2" { [3 x ptr] [ptr @.str.60, ptr @.str.61, ptr @.str.62] }, align 8
@.str.55 = private unnamed_addr constant [24 x i8] c"@    box fill color %d\0A\00", align 1
@.str.56 = private unnamed_addr constant [26 x i8] c"@    box fill pattern %d\0A\00", align 1
@.str.57 = private unnamed_addr constant [10 x i8] c"@box def\0A\00", align 1

; Function Attrs: mustprogress nounwind uwtable
define linkonce_odr noundef nonnull align 8 dereferenceable(8) ptr @_ZNSt14__array_traitsIPKcLm3EE6_S_refERA3_KS1_m(ptr noundef nonnull align 8 dereferenceable(24) %0, i64 noundef %1) #3 comdat align 2 {
  %3 = alloca ptr, align 8
  %4 = alloca i64, align 8
  store ptr %0, ptr %3, align 8
  store i64 %1, ptr %4, align 8
  %5 = load ptr, ptr %3, align 8
  %6 = load i64, ptr %4, align 8
  %7 = getelementptr inbounds [3 x ptr], ptr %5, i64 0, i64 %6
  ret ptr %7
}

; Function Attrs: mustprogress nounwind uwtable
define linkonce_odr noundef nonnull align 8 dereferenceable(8) ptr @_ZNSt14__array_traitsIPKcLm2EE6_S_refERA2_KS1_m(ptr noundef nonnull align 8 dereferenceable(16) %0, i64 noundef %1) #3 comdat align 2 {
  %3 = alloca ptr, align 8
  %4 = alloca i64, align 8
  store ptr %0, ptr %3, align 8
  store i64 %1, ptr %4, align 8
  %5 = load ptr, ptr %3, align 8
  %6 = load i64, ptr %4, align 8
  %7 = getelementptr inbounds [2 x ptr], ptr %5, i64 0, i64 %6
  ret ptr %7
}

; Function Attrs: mustprogress nounwind uwtable
define linkonce_odr noundef nonnull align 8 dereferenceable(8) ptr @_ZNKSt5arrayIPKcLm3EEixEm(ptr noundef nonnull align 8 dereferenceable(24) %0, i64 noundef %1) #3 comdat align 2 {
  %3 = alloca ptr, align 8
  %4 = alloca i64, align 8
  store ptr %0, ptr %3, align 8
  store i64 %1, ptr %4, align 8
  %5 = load ptr, ptr %3, align 8
  %6 = getelementptr inbounds %"struct.std::array.2", ptr %5, i32 0, i32 0
  %7 = load i64, ptr %4, align 8
  %8 = call noundef nonnull align 8 dereferenceable(8) ptr @_ZNSt14__array_traitsIPKcLm3EE6_S_refERA3_KS1_m(ptr noundef nonnull align 8 dereferenceable(24) %6, i64 noundef %7) #13
  ret ptr %8
}

; Function Attrs: mustprogress nounwind uwtable
define linkonce_odr noundef nonnull align 8 dereferenceable(8) ptr @_ZNKSt5arrayIPKcLm2EEixEm(ptr noundef nonnull align 8 dereferenceable(16) %0, i64 noundef %1) #3 comdat align 2 {
  %3 = alloca ptr, align 8
  %4 = alloca i64, align 8
  store ptr %0, ptr %3, align 8
  store i64 %1, ptr %4, align 8
  %5 = load ptr, ptr %3, align 8
  %6 = getelementptr inbounds %"struct.std::array", ptr %5, i32 0, i32 0
  %7 = load i64, ptr %4, align 8
  %8 = call noundef nonnull align 8 dereferenceable(8) ptr @_ZNSt14__array_traitsIPKcLm2EE6_S_refERA2_KS1_m(ptr noundef nonnull align 8 dereferenceable(16) %6, i64 noundef %7) #13
  ret ptr %8
}

; Function Attrs: mustprogress uwtable
define noundef zeroext i1 @_Z31output_env_get_print_xvgr_codesPK16gmx_output_env_t(ptr noundef %0) #0 {
  %2 = alloca ptr, align 8
  %3 = alloca i32, align 4
  store ptr %0, ptr %2, align 8
  %4 = load ptr, ptr %2, align 8
  %5 = call noundef i32 @_Z25output_env_get_xvg_formatPK16gmx_output_env_t(ptr noundef %4)
  store i32 %5, ptr %3, align 4
  %6 = load i32, ptr %3, align 4
  %7 = icmp eq i32 %6, 0
  br i1 %7, label %11, label %8

8:                                                ; preds = %1
  %9 = load i32, ptr %3, align 4
  %10 = icmp eq i32 %9, 1
  br label %11

11:                                               ; preds = %8, %1
  %12 = phi i1 [ true, %1 ], [ %10, %8 ]
  ret i1 %12
}

; Function Attrs: mustprogress uwtable
define void @_Z8xvgr_boxP8_IO_FILEiffffiiiiiiPK16gmx_output_env_t(ptr noundef %0, i32 noundef %1, float noundef %2, float noundef %3, float noundef %4, float noundef %5, i32 noundef %6, i32 noundef %7, i32 noundef %8, i32 noundef %9, i32 noundef %10, i32 noundef %11, ptr noundef %12) #0 {
  %14 = alloca ptr, align 8
  %15 = alloca i32, align 4
  %16 = alloca float, align 4
  %17 = alloca float, align 4
  %18 = alloca float, align 4
  %19 = alloca float, align 4
  %20 = alloca i32, align 4
  %21 = alloca i32, align 4
  %22 = alloca i32, align 4
  %23 = alloca i32, align 4
  %24 = alloca i32, align 4
  %25 = alloca i32, align 4
  %26 = alloca ptr, align 8
  store ptr %0, ptr %14, align 8
  store i32 %1, ptr %15, align 4
  store float %2, ptr %16, align 4
  store float %3, ptr %17, align 4
  store float %4, ptr %18, align 4
  store float %5, ptr %19, align 4
  store i32 %6, ptr %20, align 4
  store i32 %7, ptr %21, align 4
  store i32 %8, ptr %22, align 4
  store i32 %9, ptr %23, align 4
  store i32 %10, ptr %24, align 4
  store i32 %11, ptr %25, align 4
  store ptr %12, ptr %26, align 8
  %27 = load ptr, ptr %26, align 8
  %28 = call noundef zeroext i1 @_Z31output_env_get_print_xvgr_codesPK16gmx_output_env_t(ptr noundef %27)
  br i1 %28, label %29, label %73

29:                                               ; preds = %13
  %30 = load ptr, ptr %14, align 8
  %31 = call i32 (ptr, ptr, ...) @fprintf(ptr noundef %30, ptr noundef @.str.47) #13
  %32 = load ptr, ptr %14, align 8
  %33 = call i32 (ptr, ptr, ...) @fprintf(ptr noundef %32, ptr noundef @.str.48) #13
  %34 = load ptr, ptr %14, align 8
  %35 = load i32, ptr %15, align 4
  %36 = sext i32 %35 to i64
  %37 = call noundef nonnull align 8 dereferenceable(8) ptr @_ZNKSt5arrayIPKcLm2EEixEm(ptr noundef nonnull align 8 dereferenceable(16) @_ZL10LocTypeStr, i64 noundef %36) #13
  %38 = load ptr, ptr %37, align 8
  %39 = call i32 (ptr, ptr, ...) @fprintf(ptr noundef %34, ptr noundef @.str.49, ptr noundef %38) #13
  %40 = load ptr, ptr %14, align 8
  %41 = load float, ptr %16, align 4
  %42 = fpext float %41 to double
  %43 = load float, ptr %17, align 4
  %44 = fpext float %43 to double
  %45 = load float, ptr %18, align 4
  %46 = fpext float %45 to double
  %47 = load float, ptr %19, align 4
  %48 = fpext float %47 to double
  %49 = call i32 (ptr, ptr, ...) @fprintf(ptr noundef %40, ptr noundef @.str.50, double noundef %42, double noundef %44, double noundef %46, double noundef %48) #13
  %50 = load ptr, ptr %14, align 8
  %51 = load i32, ptr %20, align 4
  %52 = call i32 (ptr, ptr, ...) @fprintf(ptr noundef %50, ptr noundef @.str.51, i32 noundef %51) #13
  %53 = load ptr, ptr %14, align 8
  %54 = load i32, ptr %21, align 4
  %55 = call i32 (ptr, ptr, ...) @fprintf(ptr noundef %53, ptr noundef @.str.52, i32 noundef %54) #13
  %56 = load ptr, ptr %14, align 8
  %57 = load i32, ptr %22, align 4
  %58 = call i32 (ptr, ptr, ...) @fprintf(ptr noundef %56, ptr noundef @.str.53, i32 noundef %57) #13
  %59 = load ptr, ptr %14, align 8
  %60 = load i32, ptr %23, align 4
  %61 = sext i32 %60 to i64
  %62 = call noundef nonnull align 8 dereferenceable(8) ptr @_ZNKSt5arrayIPKcLm3EEixEm(ptr noundef nonnull align 8 dereferenceable(24) @_ZL10BoxFillStr, i64 noundef %61) #13
  %63 = load ptr, ptr %62, align 8
  %64 = call i32 (ptr, ptr, ...) @fprintf(ptr noundef %59, ptr noundef @.str.54, ptr noundef %63) #13
  %65 = load ptr, ptr %14, align 8
  %66 = load i32, ptr %24, align 4
  %67 = call i32 (ptr, ptr, ...) @fprintf(ptr noundef %65, ptr noundef @.str.55, i32 noundef %66) #13
  %68 = load ptr, ptr %14, align 8
  %69 = load i32, ptr %25, align 4
  %70 = call i32 (ptr, ptr, ...) @fprintf(ptr noundef %68, ptr noundef @.str.56, i32 noundef %69) #13
  %71 = load ptr, ptr %14, align 8
  %72 = call i32 (ptr, ptr, ...) @fprintf(ptr noundef %71, ptr noundef @.str.57) #13
  br label %73

73:                                               ; preds = %29, %13
  ret void
}