; Function Attrs: mustprogress uwtable
define void @_Z8xvgr_boxP8_IO_FILEiffffiiiiiiPK16gmx_output_env_t(ptr nocapture noundef %0, i32 noundef %1, float noundef %2, float noundef %3, float noundef %4, float noundef %5, i32 noundef %6, i32 noundef %7, i32 noundef %8, i32 noundef %9, i32 noundef %10, i32 noundef %11, ptr noundef %12) local_unnamed_addr #0 {
  %14 = tail call noundef i32 @_Z25output_env_get_xvg_formatPK16gmx_output_env_t(ptr noundef %12)
  %15 = icmp ult i32 %14, 2
  br i1 %15, label %16, label %38

16:                                               ; preds = %13
  %17 = tail call i64 @fwrite(ptr nonnull @.str.47, i64 10, i64 1, ptr %0)
  %18 = tail call i64 @fwrite(ptr nonnull @.str.48, i64 12, i64 1, ptr %0)
  %19 = sext i32 %1 to i64
  %20 = getelementptr inbounds [2 x ptr], ptr @_ZL10LocTypeStr, i64 0, i64 %19
  %21 = load ptr, ptr %20, align 8
  %22 = tail call i32 (ptr, ptr, ...) @fprintf(ptr noundef %0, ptr noundef nonnull @.str.49, ptr noundef %21) #20
  %23 = fpext float %2 to double
  %24 = fpext float %3 to double
  %25 = fpext float %4 to double
  %26 = fpext float %5 to double
  %27 = tail call i32 (ptr, ptr, ...) @fprintf(ptr noundef %0, ptr noundef nonnull @.str.50, double noundef %23, double noundef %24, double noundef %25, double noundef %26) #20
  %28 = tail call i32 (ptr, ptr, ...) @fprintf(ptr noundef %0, ptr noundef nonnull @.str.51, i32 noundef %6) #20
  %29 = tail call i32 (ptr, ptr, ...) @fprintf(ptr noundef %0, ptr noundef nonnull @.str.52, i32 noundef %7) #20
  %30 = tail call i32 (ptr, ptr, ...) @fprintf(ptr noundef %0, ptr noundef nonnull @.str.53, i32 noundef %8) #20
  %31 = sext i32 %9 to i64
  %32 = getelementptr inbounds [3 x ptr], ptr @_ZL10BoxFillStr, i64 0, i64 %31
  %33 = load ptr, ptr %32, align 8
  %34 = tail call i32 (ptr, ptr, ...) @fprintf(ptr noundef %0, ptr noundef nonnull @.str.54, ptr noundef %33) #20
  %35 = tail call i32 (ptr, ptr, ...) @fprintf(ptr noundef %0, ptr noundef nonnull @.str.55, i32 noundef %10) #20
  %36 = tail call i32 (ptr, ptr, ...) @fprintf(ptr noundef %0, ptr noundef nonnull @.str.56, i32 noundef %11) #20
  %37 = tail call i64 @fwrite(ptr nonnull @.str.57, i64 9, i64 1, ptr %0)
  br label %38

38:                                               ; preds = %16, %13
  ret void
}